; Function Attrs: inlinehint mustprogress nounwind uwtable
define internal fastcc void @_ZNSt4pairIN3ue212_GLOBAL__N_111DupeLeafKeyENS0_12graph_detail17vertex_descriptorINS0_9ue2_graphINS0_9RoseGraphENS0_15RoseVertexPropsENS0_13RoseEdgePropsEEEEEED2Ev(ptr noundef nonnull align 8 dereferenceable(240) %0) unnamed_addr #4 align 2 personality ptr @__gxx_personality_v0 {
  %2 = getelementptr inbounds nuw i8, ptr %0, i64 120
  tail call void @_ZN3ue211LeftEngInfoD2Ev(ptr noundef nonnull align 8 dereferenceable(96) %2) #27
  %3 = getelementptr inbounds nuw i8, ptr %0, i64 48
  %4 = load i64, ptr %3, align 8
  %.not.i.i.i.i.i = icmp eq i64 %4, 0
  br i1 %.not.i.i.i.i.i, label %_ZN3ue211flat_detail9flat_baseIjSt4lessIjESaIjEED2Ev.exit.i, label %5

5:                                                ; preds = %1
  %6 = getelementptr inbounds nuw i8, ptr %0, i64 32
  %7 = load ptr, ptr %6, align 8
  %8 = getelementptr inbounds nuw i8, ptr %0, i64 56
  %9 = icmp eq ptr %8, %7
  br i1 %9, label %_ZN3ue211flat_detail9flat_baseIjSt4lessIjESaIjEED2Ev.exit.i, label %10

10:                                               ; preds = %5
  tail call void @_ZdlPv(ptr noundef %7) #31
  br label %_ZN3ue211flat_detail9flat_baseIjSt4lessIjESaIjEED2Ev.exit.i

_ZN3ue211flat_detail9flat_baseIjSt4lessIjESaIjEED2Ev.exit.i: ; preds = %10, %5, %1
  %11 = getelementptr inbounds nuw i8, ptr %0, i64 16
  %12 = load i64, ptr %11, align 8
  %.not.i.i.i.i1.i = icmp eq i64 %12, 0
  br i1 %.not.i.i.i.i1.i, label %_ZN3ue212_GLOBAL__N_111DupeLeafKeyD2Ev.exit, label %13

13:                                               ; preds = %_ZN3ue211flat_detail9flat_baseIjSt4lessIjESaIjEED2Ev.exit.i
  %14 = load ptr, ptr %0, align 8
  %15 = getelementptr inbounds nuw i8, ptr %0, i64 24
  %16 = icmp eq ptr %15, %14
  br i1 %16, label %_ZN3ue212_GLOBAL__N_111DupeLeafKeyD2Ev.exit, label %17

17:                                               ; preds = %13
  tail call void @_ZdlPv(ptr noundef %14) #31
  br label %_ZN3ue212_GLOBAL__N_111DupeLeafKeyD2Ev.exit

_ZN3ue212_GLOBAL__N_111DupeLeafKeyD2Ev.exit:      ; preds = %_ZN3ue211flat_detail9flat_baseIjSt4lessIjESaIjEED2Ev.exit.i, %13, %17
  ret void
}